; ModuleID = 'source-C-CXX/51/5317.cpp'
source_filename = "source-C-CXX/51/5317.cpp"
target datalayout = "e-m:e-p270:32:32-p271:32:32-p272:64:64-i64:64-f80:128-n8:16:32:64-S128"
target triple = "x86_64-pc-linux-gnu"

%"class.std::ios_base::Init" = type { i8 }
%"class.std::basic_istream" = type { i32 (...)**, i64, %"class.std::basic_ios" }
%"class.std::basic_ios" = type { %"class.std::ios_base", %"class.std::basic_ostream"*, i8, i8, %"class.std::basic_streambuf"*, %"class.std::ctype"*, %"class.std::num_put"*, %"class.std::num_get"* }
%"class.std::ios_base" = type { i32 (...)**, i64, i64, i32, i32, i32, %"struct.std::ios_base::_Callback_list"*, %"struct.std::ios_base::_Words", [8 x %"struct.std::ios_base::_Words"], i32, %"struct.std::ios_base::_Words"*, %"class.std::locale" }
%"struct.std::ios_base::_Callback_list" = type { %"struct.std::ios_base::_Callback_list"*, void (i32, %"class.std::ios_base"*, i32)*, i32, i32 }
%"struct.std::ios_base::_Words" = type { i8*, i64 }
%"class.std::locale" = type { %"class.std::locale::_Impl"* }
%"class.std::locale::_Impl" = type { i32, %"class.std::locale::facet"**, i64, %"class.std::locale::facet"**, i8** }
%"class.std::locale::facet" = type <{ i32 (...)**, i32, [4 x i8] }>
%"class.std::basic_ostream" = type { i32 (...)**, %"class.std::basic_ios" }
%"class.std::basic_streambuf" = type { i32 (...)**, i8*, i8*, i8*, i8*, i8*, i8*, %"class.std::locale" }
%"class.std::ctype" = type <{ %"class.std::locale::facet.base", [4 x i8], %struct.__locale_struct*, i8, [7 x i8], i32*, i32*, i16*, i8, [256 x i8], [256 x i8], i8, [6 x i8] }>
%"class.std::locale::facet.base" = type <{ i32 (...)**, i32 }>
%struct.__locale_struct = type { [13 x %struct.__locale_data*], i16*, i32*, i32*, [13 x i8*] }
%struct.__locale_data = type opaque
%"class.std::num_put" = type { %"class.std::locale::facet.base", [4 x i8] }
%"class.std::num_get" = type { %"class.std::locale::facet.base", [4 x i8] }

@_ZStL8__ioinit = internal global %"class.std::ios_base::Init" zeroinitializer, align 1
@__dso_handle = external hidden global i8
@_ZSt3cin = external global %"class.std::basic_istream", align 8
@_ZSt4cout = external global %"class.std::basic_ostream", align 8
@.str = private unnamed_addr constant [2 x i8] c" \00", align 1
@llvm.global_ctors = appending global [1 x { i32, void ()*, i8* }] [{ i32, void ()*, i8* } { i32 65535, void ()* @_GLOBAL__sub_I_5317.cpp, i8* null }]

declare void @_ZNSt8ios_base4InitC1Ev(%"class.std::ios_base::Init"* nonnull align 1 dereferenceable(1)) unnamed_addr #0

; Function Attrs: nounwind
declare void @_ZNSt8ios_base4InitD1Ev(%"class.std::ios_base::Init"* nonnull align 1 dereferenceable(1)) unnamed_addr #1

; Function Attrs: nofree nounwind
declare i32 @__cxa_atexit(void (i8*)*, i8*, i8*) local_unnamed_addr #2

; Function Attrs: mustprogress norecurse sspstrong uwtable
define dso_local i32 @main() local_unnamed_addr #3 {
  %1 = alloca i32, align 4
  %2 = alloca i32, align 4
  %3 = bitcast i32* %1 to i8*
  call void @llvm.lifetime.start.p0i8(i64 4, i8* nonnull %3) #7
  %4 = bitcast i32* %2 to i8*
  call void @llvm.lifetime.start.p0i8(i64 4, i8* nonnull %4) #7
  %5 = call nonnull align 8 dereferenceable(16) %"class.std::basic_istream"* @_ZNSirsERi(%"class.std::basic_istream"* nonnull align 8 dereferenceable(16) @_ZSt3cin, i32* nonnull align 4 dereferenceable(4) %2)
  %6 = call nonnull align 8 dereferenceable(16) %"class.std::basic_istream"* @_ZNSirsERi(%"class.std::basic_istream"* nonnull align 8 dereferenceable(16) %5, i32* nonnull align 4 dereferenceable(4) %1)
  %7 = load i32, i32* %2, align 4, !tbaa !5
  %8 = zext i32 %7 to i64
  %9 = call i8* @llvm.stacksave()
  %10 = alloca i32, i64 %8, align 16
  %11 = load i32, i32* %2, align 4, !tbaa !5
  %12 = icmp sgt i32 %11, 0
  br i1 %12, label %32, label %13

13:                                               ; preds = %32, %0
  %14 = phi i32 [ %11, %0 ], [ %37, %32 ]
  %15 = sext i32 %14 to i64
  %16 = load i32, i32* %1, align 4, !tbaa !5
  %17 = sext i32 %16 to i64
  %18 = icmp sgt i32 %16, 0
  %19 = icmp sgt i32 %14, %16
  %20 = select i1 %18, i1 %19, i1 false
  br i1 %20, label %21, label %43

21:                                               ; preds = %13
  %22 = add i32 %14, 1
  %23 = sub i32 %22, %16
  %24 = add nuw nsw i32 %16, 1
  %25 = zext i32 %24 to i64
  %26 = zext i32 %23 to i64
  %27 = add nsw i64 %26, -1
  %28 = and i64 %27, 1
  %29 = icmp eq i32 %23, 2
  %30 = and i64 %27, -2
  %31 = icmp eq i64 %28, 0
  br label %40

32:                                               ; preds = %0, %32
  %33 = phi i64 [ %36, %32 ], [ 0, %0 ]
  %34 = getelementptr inbounds i32, i32* %10, i64 %33
  %35 = call nonnull align 8 dereferenceable(16) %"class.std::basic_istream"* @_ZNSirsERi(%"class.std::basic_istream"* nonnull align 8 dereferenceable(16) @_ZSt3cin, i32* nonnull align 4 dereferenceable(4) %34)
  %36 = add nuw nsw i64 %33, 1
  %37 = load i32, i32* %2, align 4, !tbaa !5
  %38 = sext i32 %37 to i64
  %39 = icmp slt i64 %36, %38
  br i1 %39, label %32, label %13, !llvm.loop !9

40:                                               ; preds = %21, %82
  %41 = phi i64 [ 1, %21 ], [ %83, %82 ]
  %42 = add nsw i64 %41, %15
  br i1 %29, label %70, label %45

43:                                               ; preds = %82, %13
  %44 = icmp sgt i32 %14, 0
  br i1 %44, label %85, label %101

45:                                               ; preds = %40, %45
  %46 = phi i64 [ %67, %45 ], [ 1, %40 ]
  %47 = phi i64 [ %68, %45 ], [ %30, %40 ]
  %48 = add nsw i64 %46, %17
  %49 = sub nsw i64 %42, %48
  %50 = getelementptr inbounds i32, i32* %10, i64 %49
  %51 = load i32, i32* %50, align 4, !tbaa !5
  %52 = getelementptr inbounds i32, i32* %50, i64 -1
  %53 = load i32, i32* %52, align 4, !tbaa !5
  store i32 %53, i32* %50, align 4, !tbaa !5
  %54 = xor i64 %48, -1
  %55 = add nsw i64 %42, %54
  %56 = getelementptr inbounds i32, i32* %10, i64 %55
  store i32 %51, i32* %56, align 4, !tbaa !5
  %57 = add nuw nsw i64 %46, 1
  %58 = add nsw i64 %57, %17
  %59 = sub nsw i64 %42, %58
  %60 = getelementptr inbounds i32, i32* %10, i64 %59
  %61 = load i32, i32* %60, align 4, !tbaa !5
  %62 = getelementptr inbounds i32, i32* %60, i64 -1
  %63 = load i32, i32* %62, align 4, !tbaa !5
  store i32 %63, i32* %60, align 4, !tbaa !5
  %64 = xor i64 %58, -1
  %65 = add nsw i64 %42, %64
  %66 = getelementptr inbounds i32, i32* %10, i64 %65
  store i32 %61, i32* %66, align 4, !tbaa !5
  %67 = add nuw nsw i64 %46, 2
  %68 = add i64 %47, -2
  %69 = icmp eq i64 %68, 0
  br i1 %69, label %70, label %45, !llvm.loop !11

70:                                               ; preds = %45, %40
  %71 = phi i64 [ 1, %40 ], [ %67, %45 ]
  br i1 %31, label %82, label %72

72:                                               ; preds = %70
  %73 = add nsw i64 %71, %17
  %74 = sub nsw i64 %42, %73
  %75 = getelementptr inbounds i32, i32* %10, i64 %74
  %76 = load i32, i32* %75, align 4, !tbaa !5
  %77 = getelementptr inbounds i32, i32* %75, i64 -1
  %78 = load i32, i32* %77, align 4, !tbaa !5
  store i32 %78, i32* %75, align 4, !tbaa !5
  %79 = xor i64 %73, -1
  %80 = add nsw i64 %42, %79
  %81 = getelementptr inbounds i32, i32* %10, i64 %80
  store i32 %76, i32* %81, align 4, !tbaa !5
  br label %82

82:                                               ; preds = %70, %72
  %83 = add nuw nsw i64 %41, 1
  %84 = icmp eq i64 %83, %25
  br i1 %84, label %43, label %40, !llvm.loop !12

85:                                               ; preds = %43, %96
  %86 = phi i64 [ %97, %96 ], [ 0, %43 ]
  %87 = phi i32 [ %98, %96 ], [ %14, %43 ]
  %88 = add nsw i32 %87, -1
  %89 = zext i32 %88 to i64
  %90 = icmp eq i64 %86, %89
  %91 = getelementptr inbounds i32, i32* %10, i64 %86
  %92 = load i32, i32* %91, align 4, !tbaa !5
  %93 = call nonnull align 8 dereferenceable(8) %"class.std::basic_ostream"* @_ZNSolsEi(%"class.std::basic_ostream"* nonnull align 8 dereferenceable(8) @_ZSt4cout, i32 %92)
  br i1 %90, label %96, label %94

94:                                               ; preds = %85
  %95 = call nonnull align 8 dereferenceable(8) %"class.std::basic_ostream"* @_ZSt16__ostream_insertIcSt11char_traitsIcEERSt13basic_ostreamIT_T0_ES6_PKS3_l(%"class.std::basic_ostream"* nonnull align 8 dereferenceable(8) %93, i8* nonnull getelementptr inbounds ([2 x i8], [2 x i8]* @.str, i64 0, i64 0), i64 1)
  br label %96

96:                                               ; preds = %85, %94
  %97 = add nuw nsw i64 %86, 1
  %98 = load i32, i32* %2, align 4, !tbaa !5
  %99 = sext i32 %98 to i64
  %100 = icmp slt i64 %97, %99
  br i1 %100, label %85, label %101, !llvm.loop !13

101:                                              ; preds = %96, %43
  call void @llvm.stackrestore(i8* %9)
  call void @llvm.lifetime.end.p0i8(i64 4, i8* nonnull %4) #7
  call void @llvm.lifetime.end.p0i8(i64 4, i8* nonnull %3) #7
  ret i32 0
}

; Function Attrs: argmemonly mustprogress nofree nosync nounwind willreturn
declare void @llvm.lifetime.start.p0i8(i64 immarg, i8* nocapture) #4

declare nonnull align 8 dereferenceable(16) %"class.std::basic_istream"* @_ZNSirsERi(%"class.std::basic_istream"* nonnull align 8 dereferenceable(16), i32* nonnull align 4 dereferenceable(4)) local_unnamed_addr #0

; Function Attrs: mustprogress nofree nosync nounwind willreturn
declare i8* @llvm.stacksave() #5

declare nonnull align 8 dereferenceable(8) %"class.std::basic_ostream"* @_ZNSolsEi(%"class.std::basic_ostream"* nonnull align 8 dereferenceable(8), i32) local_unnamed_addr #0

; Function Attrs: mustprogress nofree nosync nounwind willreturn
declare void @llvm.stackrestore(i8*) #5

; Function Attrs: argmemonly mustprogress nofree nosync nounwind willreturn
declare void @llvm.lifetime.end.p0i8(i64 immarg, i8* nocapture) #4

declare nonnull align 8 dereferenceable(8) %"class.std::basic_ostream"* @_ZSt16__ostream_insertIcSt11char_traitsIcEERSt13basic_ostreamIT_T0_ES6_PKS3_l(%"class.std::basic_ostream"* nonnull align 8 dereferenceable(8), i8*, i64) local_unnamed_addr #0

; Function Attrs: sspstrong uwtable
define internal void @_GLOBAL__sub_I_5317.cpp() #6 section ".text.startup" {
  tail call void @_ZNSt8ios_base4InitC1Ev(%"class.std::ios_base::Init"* nonnull align 1 dereferenceable(1) @_ZStL8__ioinit)
  %1 = tail call i32 @__cxa_atexit(void (i8*)* bitcast (void (%"class.std::ios_base::Init"*)* @_ZNSt8ios_base4InitD1Ev to void (i8*)*), i8* getelementptr inbounds (%"class.std::ios_base::Init", %"class.std::ios_base::Init"* @_ZStL8__ioinit, i64 0, i32 0), i8* nonnull @__dso_handle) #7
  ret void
}


!llvm.module.flags = !{!0, !1, !2, !3}
!llvm.ident = !{!4}

!0 = !{i32 1, !"wchar_size", i32 4}
!1 = !{i32 7, !"PIC Level", i32 2}
!2 = !{i32 7, !"PIE Level", i32 2}
!3 = !{i32 7, !"uwtable", i32 1}
!4 = !{!"clang version 13.0.0"}
!5 = !{!6, !6, i64 0}
!6 = !{!"int", !7, i64 0}
!7 = !{!"omnipotent char", !8, i64 0}
!8 = !{!"Simple C++ TBAA"}
!9 = distinct !{!9, !10}
!10 = !{!"llvm.loop.mustprogress"}
!11 = distinct !{!11, !10}
!12 = distinct !{!12, !10}
!13 = distinct !{!13, !10}
